; Function Attrs: mustprogress nofree norecurse nosync nounwind willreturn memory(read, inaccessiblemem: none) uwtable
define dso_local noundef zeroext i1 @_ZN4llvm31debuginfoShouldUseDebugInstrRefERKNS_6TripleE(ptr nocapture noundef nonnull readonly align 8 dereferenceable(56) %0) local_unnamed_addr #2 {
  %2 = getelementptr inbounds nuw i8, ptr %0, i64 32
  %3 = load i32, ptr %2, align 8
  %4 = icmp eq i32 %3, 38
  %5 = load i32, ptr getelementptr inbounds (i8, ptr @_ZL30ValueTrackingVariableLocations, i64 128), align 8
  %.not = icmp ne i32 %5, 2
  %or.cond.not = select i1 %4, i1 %.not, i1 false
  %6 = icmp eq i32 %5, 1
  %spec.select = select i1 %or.cond.not, i1 true, i1 %6
  ret i1 %spec.select
}